; Function Attrs: mustprogress uwtable
define internal void @_ZL25complex_horner_inverse_4dR8PJ_COORDP8PJconsts(ptr nocapture noundef nonnull align 8 dereferenceable(32) %0, ptr noundef %1) #0 {
  %3 = getelementptr inbounds i8, ptr %1, i64 88
  %4 = load ptr, ptr %3, align 8
  %.pn.in.in.i = getelementptr inbounds i8, ptr %4, i64 96
  %.pn.in.i = load ptr, ptr %.pn.in.in.i, align 8
  %5 = load i32, ptr %4, align 8
  %.not.i = icmp eq i32 %5, 0
  %6 = getelementptr inbounds i8, ptr %4, i64 4
  %7 = load i32, ptr %6, align 4
  %.not31.i = icmp eq i32 %7, 0
  %8 = getelementptr i8, ptr %4, i64 16
  %.val.i = load double, ptr %8, align 8
  %9 = load <2 x double>, ptr %0, align 8
  %10 = load <2 x double>, ptr %.pn.in.i, align 8
  %11 = fsub <2 x double> %9, %10
  %12 = extractelement <2 x double> %11, i64 0
  %13 = fneg double %12
  %.128.i = select i1 %.not.i, double %12, double %13
  %14 = extractelement <2 x double> %11, i64 1
  %15 = fneg double %14
  %.1.i = select i1 %.not31.i, double %14, double %15
  %16 = tail call <2 x double> @llvm.fabs.v2f64(<2 x double> %11)
  %17 = insertelement <2 x double> poison, double %.val.i, i64 0
  %18 = shufflevector <2 x double> %17, <2 x double> poison, <2 x i32> zeroinitializer
  %19 = fcmp ogt <2 x double> %16, %18
  %shift = shufflevector <2 x i1> %19, <2 x i1> poison, <2 x i32> <i32 1, i32 poison>
  %20 = or <2 x i1> %shift, %19
  %or.cond.i.i = extractelement <2 x i1> %20, i64 0
  br i1 %or.cond.i.i, label %21, label %_ZL19coords_out_of_rangeP8PJconstsPKN12_GLOBAL__N_16hornerEdd.exit.i

21:                                               ; preds = %2
  %22 = tail call i32 @proj_errno_set(ptr noundef nonnull %1, i32 noundef 2050)
  br label %_ZL20complex_default_implP8PJconstsPKN12_GLOBAL__N_16hornerE12PJ_DIRECTION5PJ_UV.exit

_ZL19coords_out_of_rangeP8PJconstsPKN12_GLOBAL__N_16hornerEdd.exit.i: ; preds = %2
  %.in.i = getelementptr inbounds i8, ptr %4, i64 80
  %23 = load ptr, ptr %.in.i, align 8
  %24 = getelementptr inbounds i8, ptr %4, i64 8
  %25 = load i32, ptr %24, align 8
  %26 = shl i32 %25, 1
  %27 = add i32 %26, 2
  %28 = zext i32 %27 to i64
  %29 = getelementptr inbounds double, ptr %23, i64 %28
  %30 = getelementptr inbounds i8, ptr %29, i64 -16
  %31 = load <2 x double>, ptr %30, align 8
  %32 = icmp ugt ptr %30, %23
  br i1 %32, label %.lr.ph.i.i.preheader, label %_ZL20complex_default_implP8PJconstsPKN12_GLOBAL__N_16hornerE12PJ_DIRECTION5PJ_UV.exit

.lr.ph.i.i.preheader:                             ; preds = %_ZL19coords_out_of_rangeP8PJconstsPKN12_GLOBAL__N_16hornerEdd.exit.i
  %33 = insertelement <2 x double> poison, double %.128.i, i64 0
  %34 = shufflevector <2 x double> %33, <2 x double> poison, <2 x i32> zeroinitializer
  %35 = insertelement <2 x double> poison, double %.1.i, i64 0
  %36 = shufflevector <2 x double> %35, <2 x double> poison, <2 x i32> zeroinitializer
  br label %.lr.ph.i.i

.lr.ph.i.i:                                       ; preds = %.lr.ph.i.i.preheader, %.lr.ph.i.i
  %.027.i.i = phi ptr [ %40, %.lr.ph.i.i ], [ %30, %.lr.ph.i.i.preheader ]
  %37 = phi <2 x double> [ %46, %.lr.ph.i.i ], [ %31, %.lr.ph.i.i.preheader ]
  %38 = extractelement <2 x double> %37, i64 1
  %39 = fneg double %38
  %40 = getelementptr inbounds i8, ptr %.027.i.i, i64 -16
  %41 = shufflevector <2 x double> %37, <2 x double> poison, <2 x i32> <i32 poison, i32 0>
  %42 = insertelement <2 x double> %41, double %39, i64 0
  %43 = fmul <2 x double> %34, %42
  %44 = tail call <2 x double> @llvm.fmuladd.v2f64(<2 x double> %36, <2 x double> %37, <2 x double> %43)
  %45 = load <2 x double>, ptr %40, align 8
  %46 = fadd <2 x double> %44, %45
  %47 = icmp ugt ptr %40, %23
  br i1 %47, label %.lr.ph.i.i, label %_ZL20complex_default_implP8PJconstsPKN12_GLOBAL__N_16hornerE12PJ_DIRECTION5PJ_UV.exit, !llvm.loop !5

_ZL20complex_default_implP8PJconstsPKN12_GLOBAL__N_16hornerE12PJ_DIRECTION5PJ_UV.exit: ; preds = %.lr.ph.i.i, %21, %_ZL19coords_out_of_rangeP8PJconstsPKN12_GLOBAL__N_16hornerEdd.exit.i
  %48 = phi <2 x double> [ <double 0x7FF0000000000000, double 0x7FF0000000000000>, %21 ], [ %31, %_ZL19coords_out_of_rangeP8PJconstsPKN12_GLOBAL__N_16hornerEdd.exit.i ], [ %46, %.lr.ph.i.i ]
  %49 = shufflevector <2 x double> %48, <2 x double> poison, <2 x i32> <i32 1, i32 0>
  store <2 x double> %49, ptr %0, align 8
  ret void
}